target datalayout = "e-m:e-p270:32:32-p271:32:32-p272:64:64-i64:64-i128:128-f80:128-n8:16:32:64-S128"
target triple = "x86_64-unknown-linux-gnu"

%class.symbol = type { ptr }
%"class.opt::context::scoped_state" = type { ptr, %class.arith_util, %class.bv_util, %class.svector, %class.svector, %class.svector, %class.svector, %class.svector, %class.map, %class.ref_vector, %class.ref_vector, %class.vector.1 }
%class.arith_util = type { ptr, ptr }
%class.bv_util = type { %class.bv_recognizers, ptr, ptr }
%class.bv_recognizers = type { i32 }
%class.svector = type { %class.vector }
%class.vector = type { ptr }
%class.map = type { %class.table2map }
%class.table2map = type { %class.core_hashtable }
%class.core_hashtable = type <{ ptr, i32, i32, i32, [4 x i8] }>
%class.ref_vector = type { %class.ref_vector_core }
%class.ref_vector_core = type { %class.ref_manager_wrapper, %class.ptr_vector }
%class.ref_manager_wrapper = type { ptr }
%class.ptr_vector = type { %class.vector.0 }
%class.vector.0 = type { ptr }
%class.vector.1 = type { ptr }
%class.obj_ref = type { ptr, ptr }
%"class.std::__cxx11::basic_string" = type { %"struct.std::__cxx11::basic_string<char>::_Alloc_hider", i64, %union.anon }
%"struct.std::__cxx11::basic_string<char>::_Alloc_hider" = type { ptr }
%union.anon = type { i64, [8 x i8] }
%"class.std::allocator" = type { i8 }
%class.default_exception = type { %class.z3_exception, %"class.std::__cxx11::basic_string" }
%class.z3_exception = type { ptr }
%class.params_ref = type { ptr }
%"class.opt::context" = type { %class.opt_wrapper, %"class.opt::pareto_callback", %"class.opt::maxsat_context", double, %"struct.opt::on_model_t", %"class.std::function", i8, %class.arith_util, %class.bv_util, %class.ref_vector, %class.ref.34, %class.ref.35, %class.ref.35, %class.scoped_ptr, i8, %class.scoped_ptr.36, %class.ref_vector_core.37, i32, %class.params_ref, %"class.opt::optsmt", %class.map.47, %"class.opt::context::scoped_state", %class.vector.1, %class.ref.46, %class.ref, %class.ref.51, %class.ref_vector_core.37, i32, [4 x i8], %class.obj_map.52, %class.obj_map.57, %class.ref_vector.62, %class.ref_vector, %class.ref.67, i8, i8, i8, i8, i8, i8, %class.symbol, %class.symbol, %class.svector.12, %"class.std::__cxx11::basic_string" }
%class.opt_wrapper = type { %class.check_sat_result }
%class.check_sat_result = type { ptr, ptr, %class.ref_vector, %class.obj_ref, i32, i32, %class.ref, double }
%"class.opt::pareto_callback" = type { ptr }
%"class.opt::maxsat_context" = type { ptr }
%"struct.opt::on_model_t" = type { ptr, ptr, ptr, ptr }
%"class.std::function" = type { %"class.std::_Function_base", ptr }
%"class.std::_Function_base" = type { %"union.std::_Any_data", ptr }
%"union.std::_Any_data" = type { %"union.std::_Nocopy_types" }
%"union.std::_Nocopy_types" = type { { i64, i64 } }
%class.ref.34 = type { ptr }
%class.ref.35 = type { ptr }
%class.scoped_ptr = type { ptr }
%class.scoped_ptr.36 = type { ptr }
%"class.opt::optsmt" = type { ptr, ptr, ptr, %class.vector.40, %class.vector.40, %class.ref_vector.41, %class.ref_vector, %class.svector.10, %class.symbol, %class.ref.46, %class.ref.46, %class.svector.12, %class.ref_vector_core.37 }
%class.vector.40 = type { ptr }
%class.ref_vector.41 = type { %class.ref_vector_core.42 }
%class.ref_vector_core.42 = type { %class.ref_manager_wrapper.43, %class.ptr_vector.44 }
%class.ref_manager_wrapper.43 = type { ptr }
%class.ptr_vector.44 = type { %class.vector.45 }
%class.vector.45 = type { ptr }
%class.svector.10 = type { %class.vector.11 }
%class.vector.11 = type { ptr }
%class.map.47 = type { %class.table2map.48 }
%class.table2map.48 = type { %class.core_hashtable.49 }
%class.core_hashtable.49 = type <{ ptr, i32, i32, i32, [4 x i8] }>
%class.ref.46 = type { ptr }
%class.ref = type { ptr }
%class.ref.51 = type { ptr }
%class.ref_vector_core.37 = type { %class.ptr_vector.38 }
%class.ptr_vector.38 = type { %class.vector.39 }
%class.vector.39 = type { ptr }
%class.obj_map.52 = type { %class.core_hashtable.53 }
%class.core_hashtable.53 = type <{ ptr, i32, i32, i32, [4 x i8] }>
%class.obj_map.57 = type { %class.core_hashtable.58 }
%class.core_hashtable.58 = type <{ ptr, i32, i32, i32, [4 x i8] }>
%class.ref_vector.62 = type { %class.ref_vector_core.63 }
%class.ref_vector_core.63 = type { %class.ref_manager_wrapper.64, %class.ptr_vector.65 }
%class.ref_manager_wrapper.64 = type { ptr }
%class.ptr_vector.65 = type { %class.vector.66 }
%class.vector.66 = type { ptr }
%class.ref.67 = type { ptr }
%class.svector.12 = type { %class.vector.13 }
%class.vector.13 = type { ptr }
%class.model_core = type { ptr, ptr, i32, [4 x i8], %class.obj_map.81, %class.obj_map.86, %class.ptr_vector.65, %class.ptr_vector.65, %class.ptr_vector.65 }
%class.obj_map.81 = type { %class.core_hashtable.82 }
%class.core_hashtable.82 = type <{ ptr, i32, i32, i32, [4 x i8] }>
%class.obj_map.86 = type { %class.core_hashtable.87 }
%class.core_hashtable.87 = type <{ ptr, i32, i32, i32, [4 x i8] }>

@_ZTI17default_exception = external constant ptr
@.str.22 = private unnamed_addr constant [35 x i8] c"index into models is out of bounds\00", align 1
@_ZTV17default_exception = external unnamed_addr constant { [6 x ptr] }, align 8
@_ZTV12z3_exception = external unnamed_addr constant { [6 x ptr] }, align 8

; Function Attrs: mustprogress uwtable
define linkonce_odr hidden void @_Z7deallocI10model_coreEvPT_(ptr noundef %ptr) #5 comdat {
entry:
  %ptr.addr = alloca ptr, align 8
  store ptr %ptr, ptr %ptr.addr, align 8
  %0 = load ptr, ptr %ptr.addr, align 8
  %cmp = icmp eq ptr %0, null
  br i1 %cmp, label %if.then, label %if.end

if.then:                                          ; preds = %entry
  br label %return

if.end:                                           ; preds = %entry
  %1 = load ptr, ptr %ptr.addr, align 8
  %vtable = load ptr, ptr %1, align 8
  %vfn = getelementptr inbounds ptr, ptr %vtable, i64 0
  %2 = load ptr, ptr %vfn, align 8
  call void %2(ptr noundef nonnull align 8 dereferenceable(96) %1) #3
  %3 = load ptr, ptr %ptr.addr, align 8
  call void @_ZN6memory10deallocateEPv(ptr noundef %3)
  br label %return

return:                                           ; preds = %if.end, %if.then
  ret void
}

; Function Attrs: mustprogress uwtable
define linkonce_odr hidden void @_ZN10model_core7dec_refEv(ptr noundef nonnull align 8 dereferenceable(96) %this) #5 comdat align 2 {
entry:
  %this.addr = alloca ptr, align 8
  store ptr %this, ptr %this.addr, align 8
  %this1 = load ptr, ptr %this.addr, align 8
  %m_ref_count = getelementptr inbounds %class.model_core, ptr %this1, i32 0, i32 2
  %0 = load i32, ptr %m_ref_count, align 8
  %dec = add i32 %0, -1
  store i32 %dec, ptr %m_ref_count, align 8
  %m_ref_count2 = getelementptr inbounds %class.model_core, ptr %this1, i32 0, i32 2
  %1 = load i32, ptr %m_ref_count2, align 8
  %cmp = icmp eq i32 %1, 0
  br i1 %cmp, label %if.then, label %if.end

if.then:                                          ; preds = %entry
  call void @_Z7deallocI10model_coreEvPT_(ptr noundef %this1)
  br label %if.end

if.end:                                           ; preds = %if.then, %entry
  ret void
}

; Function Attrs: mustprogress uwtable
define linkonce_odr hidden void @_ZN3refI5modelE7dec_refEv(ptr noundef nonnull align 8 dereferenceable(8) %this) #5 comdat align 2 {
entry:
  %this.addr = alloca ptr, align 8
  store ptr %this, ptr %this.addr, align 8
  %this1 = load ptr, ptr %this.addr, align 8
  %m_ptr = getelementptr inbounds %class.ref.46, ptr %this1, i32 0, i32 0
  %0 = load ptr, ptr %m_ptr, align 8
  %tobool = icmp ne ptr %0, null
  br i1 %tobool, label %if.then, label %if.end

if.then:                                          ; preds = %entry
  %m_ptr2 = getelementptr inbounds %class.ref.46, ptr %this1, i32 0, i32 0
  %1 = load ptr, ptr %m_ptr2, align 8
  call void @_ZN10model_core7dec_refEv(ptr noundef nonnull align 8 dereferenceable(96) %1)
  br label %if.end

if.end:                                           ; preds = %if.then, %entry
  ret void
}

; Function Attrs: mustprogress nounwind uwtable
define linkonce_odr hidden void @_ZN10model_core7inc_refEv(ptr noundef nonnull align 8 dereferenceable(96) %this) #4 comdat align 2 {
entry:
  %this.addr = alloca ptr, align 8
  store ptr %this, ptr %this.addr, align 8
  %this1 = load ptr, ptr %this.addr, align 8
  %m_ref_count = getelementptr inbounds %class.model_core, ptr %this1, i32 0, i32 2
  %0 = load i32, ptr %m_ref_count, align 8
  %inc = add i32 %0, 1
  store i32 %inc, ptr %m_ref_count, align 8
  ret void
}

; Function Attrs: mustprogress nounwind uwtable
define linkonce_odr hidden noundef nonnull align 8 dereferenceable(8) ptr @_ZNK6vectorIP5modelLb0EjEixEj(ptr noundef nonnull align 8 dereferenceable(8) %this, i32 noundef %idx) #4 comdat align 2 {
entry:
  %this.addr = alloca ptr, align 8
  %idx.addr = alloca i32, align 4
  store ptr %this, ptr %this.addr, align 8
  store i32 %idx, ptr %idx.addr, align 4
  %this1 = load ptr, ptr %this.addr, align 8
  %m_data = getelementptr inbounds %class.vector.39, ptr %this1, i32 0, i32 0
  %0 = load ptr, ptr %m_data, align 8
  %1 = load i32, ptr %idx.addr, align 4
  %idxprom = zext i32 %1 to i64
  %arrayidx = getelementptr inbounds ptr, ptr %0, i64 %idxprom
  ret ptr %arrayidx
}

; Function Attrs: mustprogress nounwind uwtable
define linkonce_odr hidden void @_ZN12z3_exceptionC2Ev(ptr noundef nonnull align 8 dereferenceable(8) %this) unnamed_addr #4 comdat align 2 {
entry:
  %this.addr = alloca ptr, align 8
  store ptr %this, ptr %this.addr, align 8
  %this1 = load ptr, ptr %this.addr, align 8
  store ptr getelementptr inbounds ({ [6 x ptr] }, ptr @_ZTV12z3_exception, i32 0, i32 0, i32 2), ptr %this1, align 8
  ret void
}

; Function Attrs: mustprogress nounwind uwtable
define linkonce_odr hidden noundef i32 @_ZNK6vectorIP5modelLb0EjE4sizeEv(ptr noundef nonnull align 8 dereferenceable(8) %this) #4 comdat align 2 {
entry:
  %retval = alloca i32, align 4
  %this.addr = alloca ptr, align 8
  store ptr %this, ptr %this.addr, align 8
  %this1 = load ptr, ptr %this.addr, align 8
  %m_data = getelementptr inbounds %class.vector.39, ptr %this1, i32 0, i32 0
  %0 = load ptr, ptr %m_data, align 8
  %cmp = icmp eq ptr %0, null
  br i1 %cmp, label %if.then, label %if.end

if.then:                                          ; preds = %entry
  store i32 0, ptr %retval, align 4
  br label %return

if.end:                                           ; preds = %entry
  %m_data2 = getelementptr inbounds %class.vector.39, ptr %this1, i32 0, i32 0
  %1 = load ptr, ptr %m_data2, align 8
  %arrayidx = getelementptr inbounds i32, ptr %1, i64 -1
  %2 = load i32, ptr %arrayidx, align 4
  store i32 %2, ptr %retval, align 4
  br label %return

return:                                           ; preds = %if.end, %if.then
  %3 = load i32, ptr %retval, align 4
  ret i32 %3
}

; Function Attrs: mustprogress uwtable
define linkonce_odr hidden noundef nonnull align 8 dereferenceable(8) ptr @_ZN3refI5modelEaSEPS0_(ptr noundef nonnull align 8 dereferenceable(8) %this, ptr noundef %ptr) #5 comdat align 2 {
entry:
  %this.addr = alloca ptr, align 8
  %ptr.addr = alloca ptr, align 8
  store ptr %this, ptr %this.addr, align 8
  store ptr %ptr, ptr %ptr.addr, align 8
  %this1 = load ptr, ptr %this.addr, align 8
  %0 = load ptr, ptr %ptr.addr, align 8
  %tobool = icmp ne ptr %0, null
  br i1 %tobool, label %if.then, label %if.end

if.then:                                          ; preds = %entry
  %1 = load ptr, ptr %ptr.addr, align 8
  call void @_ZN10model_core7inc_refEv(ptr noundef nonnull align 8 dereferenceable(96) %1)
  br label %if.end

if.end:                                           ; preds = %if.then, %entry
  call void @_ZN3refI5modelE7dec_refEv(ptr noundef nonnull align 8 dereferenceable(8) %this1)
  %2 = load ptr, ptr %ptr.addr, align 8
  %m_ptr = getelementptr inbounds %class.ref.46, ptr %this1, i32 0, i32 0
  store ptr %2, ptr %m_ptr, align 8
  ret ptr %this1
}

; Function Attrs: mustprogress uwtable
define linkonce_odr hidden noundef ptr @_ZNK15ref_vector_coreI5model21ref_unmanaged_wrapperIS0_EEixEj(ptr noundef nonnull align 8 dereferenceable(8) %this, i32 noundef %idx) #5 comdat align 2 {
entry:
  %this.addr = alloca ptr, align 8
  %idx.addr = alloca i32, align 4
  store ptr %this, ptr %this.addr, align 8
  store i32 %idx, ptr %idx.addr, align 4
  %this1 = load ptr, ptr %this.addr, align 8
  %m_nodes = getelementptr inbounds %class.ref_vector_core.37, ptr %this1, i32 0, i32 0
  %0 = load i32, ptr %idx.addr, align 4
  %call = call noundef nonnull align 8 dereferenceable(8) ptr @_ZNK6vectorIP5modelLb0EjEixEj(ptr noundef nonnull align 8 dereferenceable(8) %m_nodes, i32 noundef %0)
  %1 = load ptr, ptr %call, align 8
  ret ptr %1
}

; Function Attrs: mustprogress nounwind uwtable
define linkonce_odr hidden void @_ZN17default_exceptionC2EONSt7__cxx1112basic_stringIcSt11char_traitsIcESaIcEEE(ptr noundef nonnull align 8 dereferenceable(40) %this, ptr noundef nonnull align 8 dereferenceable(32) %msg) unnamed_addr #4 comdat align 2 {
entry:
  %this.addr = alloca ptr, align 8
  %msg.addr = alloca ptr, align 8
  store ptr %this, ptr %this.addr, align 8
  store ptr %msg, ptr %msg.addr, align 8
  %this1 = load ptr, ptr %this.addr, align 8
  call void @_ZN12z3_exceptionC2Ev(ptr noundef nonnull align 8 dereferenceable(8) %this1) #3
  store ptr getelementptr inbounds ({ [6 x ptr] }, ptr @_ZTV17default_exception, i32 0, i32 0, i32 2), ptr %this1, align 8
  %m_msg = getelementptr inbounds %class.default_exception, ptr %this1, i32 0, i32 1
  %0 = load ptr, ptr %msg.addr, align 8
  call void @_ZNSt7__cxx1112basic_stringIcSt11char_traitsIcESaIcEEC1EOS4_(ptr noundef nonnull align 8 dereferenceable(32) %m_msg, ptr noundef nonnull align 8 dereferenceable(32) %0) #3
  ret void
}

; Function Attrs: mustprogress nounwind uwtable
define linkonce_odr hidden noundef i32 @_ZNK15ref_vector_coreI5model21ref_unmanaged_wrapperIS0_EE4sizeEv(ptr noundef nonnull align 8 dereferenceable(8) %this) #4 comdat align 2 {
entry:
  %this.addr = alloca ptr, align 8
  store ptr %this, ptr %this.addr, align 8
  %this1 = load ptr, ptr %this.addr, align 8
  %m_nodes = getelementptr inbounds %class.ref_vector_core.37, ptr %this1, i32 0, i32 0
  %call = call noundef i32 @_ZNK6vectorIP5modelLb0EjE4sizeEv(ptr noundef nonnull align 8 dereferenceable(8) %m_nodes)
  ret i32 %call
}

; Function Attrs: mustprogress uwtable
define hidden void @_ZN3opt7context13get_box_modelER3refI5modelEj(ptr noundef nonnull align 8 dereferenceable(792) %this, ptr noundef nonnull align 8 dereferenceable(8) %mdl, i32 noundef %index) unnamed_addr #5 align 2 personality ptr @__gxx_personality_v0 {
entry:
  %this.addr = alloca ptr, align 8
  %mdl.addr = alloca ptr, align 8
  %index.addr = alloca i32, align 4
  %ref.tmp = alloca %"class.std::__cxx11::basic_string", align 8
  %ref.tmp2 = alloca %"class.std::allocator", align 1
  %exn.slot = alloca ptr, align 8
  %ehselector.slot = alloca i32, align 4
  %cleanup.isactive = alloca i1, align 1
  store ptr %this, ptr %this.addr, align 8
  store ptr %mdl, ptr %mdl.addr, align 8
  store i32 %index, ptr %index.addr, align 4
  %this1 = load ptr, ptr %this.addr, align 8
  %0 = load i32, ptr %index.addr, align 4
  %m_box_models = getelementptr inbounds %"class.opt::context", ptr %this1, i32 0, i32 16
  %call = call noundef i32 @_ZNK15ref_vector_coreI5model21ref_unmanaged_wrapperIS0_EE4sizeEv(ptr noundef nonnull align 8 dereferenceable(8) %m_box_models)
  %cmp = icmp uge i32 %0, %call
  br i1 %cmp, label %if.then, label %if.end

if.then:                                          ; preds = %entry
  store i1 true, ptr %cleanup.isactive, align 1
  %exception = call ptr @__cxa_allocate_exception(i64 40) #3
  call void @_ZNSaIcEC1Ev(ptr noundef nonnull align 1 dereferenceable(1) %ref.tmp2) #3
  invoke void @_ZNSt7__cxx1112basic_stringIcSt11char_traitsIcESaIcEEC2IS3_EEPKcRKS3_(ptr noundef nonnull align 8 dereferenceable(32) %ref.tmp, ptr noundef @.str.22, ptr noundef nonnull align 1 dereferenceable(1) %ref.tmp2)
          to label %invoke.cont unwind label %lpad

invoke.cont:                                      ; preds = %if.then
  invoke void @_ZN17default_exceptionC2EONSt7__cxx1112basic_stringIcSt11char_traitsIcESaIcEEE(ptr noundef nonnull align 8 dereferenceable(40) %exception, ptr noundef nonnull align 8 dereferenceable(32) %ref.tmp)
          to label %invoke.cont4 unwind label %lpad3

invoke.cont4:                                     ; preds = %invoke.cont
  store i1 false, ptr %cleanup.isactive, align 1
  invoke void @__cxa_throw(ptr %exception, ptr @_ZTI17default_exception, ptr @_ZN17default_exceptionD2Ev) #16
          to label %unreachable unwind label %lpad3

lpad:                                             ; preds = %if.then
  %1 = landingpad { ptr, i32 }
          cleanup
  %2 = extractvalue { ptr, i32 } %1, 0
  store ptr %2, ptr %exn.slot, align 8
  %3 = extractvalue { ptr, i32 } %1, 1
  store i32 %3, ptr %ehselector.slot, align 4
  br label %ehcleanup

lpad3:                                            ; preds = %invoke.cont4, %invoke.cont
  %4 = landingpad { ptr, i32 }
          cleanup
  %5 = extractvalue { ptr, i32 } %4, 0
  store ptr %5, ptr %exn.slot, align 8
  %6 = extractvalue { ptr, i32 } %4, 1
  store i32 %6, ptr %ehselector.slot, align 4
  call void @_ZNSt7__cxx1112basic_stringIcSt11char_traitsIcESaIcEED1Ev(ptr noundef nonnull align 8 dereferenceable(32) %ref.tmp) #3
  br label %ehcleanup

ehcleanup:                                        ; preds = %lpad3, %lpad
  call void @_ZNSaIcED1Ev(ptr noundef nonnull align 1 dereferenceable(1) %ref.tmp2) #3
  %cleanup.is_active = load i1, ptr %cleanup.isactive, align 1
  br i1 %cleanup.is_active, label %cleanup.action, label %cleanup.done

cleanup.action:                                   ; preds = %ehcleanup
  call void @__cxa_free_exception(ptr %exception) #3
  br label %cleanup.done

cleanup.done:                                     ; preds = %cleanup.action, %ehcleanup
  br label %eh.resume

if.end:                                           ; preds = %entry
  %m_box_models6 = getelementptr inbounds %"class.opt::context", ptr %this1, i32 0, i32 16
  %7 = load i32, ptr %index.addr, align 4
  %call7 = call noundef ptr @_ZNK15ref_vector_coreI5model21ref_unmanaged_wrapperIS0_EEixEj(ptr noundef nonnull align 8 dereferenceable(8) %m_box_models6, i32 noundef %7)
  %8 = load ptr, ptr %mdl.addr, align 8
  %call8 = call noundef nonnull align 8 dereferenceable(8) ptr @_ZN3refI5modelEaSEPS0_(ptr noundef nonnull align 8 dereferenceable(8) %8, ptr noundef %call7)
  %9 = load ptr, ptr %mdl.addr, align 8
  %vtable = load ptr, ptr %this1, align 8
  %vfn = getelementptr inbounds ptr, ptr %vtable, i64 21
  %10 = load ptr, ptr %vfn, align 8
  call void %10(ptr noundef nonnull align 8 dereferenceable(792) %this1, ptr noundef nonnull align 8 dereferenceable(8) %9)
  ret void

eh.resume:                                        ; preds = %cleanup.done
  %exn = load ptr, ptr %exn.slot, align 8
  %sel = load i32, ptr %ehselector.slot, align 4
  %lpad.val = insertvalue { ptr, i32 } poison, ptr %exn, 0
  %lpad.val9 = insertvalue { ptr, i32 } %lpad.val, i32 %sel, 1
  resume { ptr, i32 } %lpad.val9

unreachable:                                      ; preds = %invoke.cont4
  unreachable
}