; Function Attrs: mustprogress uwtable
define hidden void @_ZN3opt7context13get_box_modelER3refI5modelEj(ptr noundef nonnull align 8 dereferenceable(792) %this, ptr noundef nonnull align 8 dereferenceable(8) %mdl, i32 noundef %index) unnamed_addr #3 align 2 personality ptr @__gxx_personality_v0 {
entry:
  %ref.tmp = alloca %"class.std::__cxx11::basic_string", align 8
  %ref.tmp2 = alloca %"class.std::allocator", align 1
  %m_box_models = getelementptr inbounds i8, ptr %this, i64 272
  %0 = load ptr, ptr %m_box_models, align 8
  %cmp.i.i = icmp eq ptr %0, null
  br i1 %cmp.i.i, label %if.then, label %_ZNK15ref_vector_coreI5model21ref_unmanaged_wrapperIS0_EE4sizeEv.exit

_ZNK15ref_vector_coreI5model21ref_unmanaged_wrapperIS0_EE4sizeEv.exit: ; preds = %entry
  %arrayidx.i.i = getelementptr inbounds i8, ptr %0, i64 -4
  %1 = load i32, ptr %arrayidx.i.i, align 4
  %cmp.not = icmp ugt i32 %1, %index
  br i1 %cmp.not, label %if.end, label %if.then

if.then:                                          ; preds = %entry, %_ZNK15ref_vector_coreI5model21ref_unmanaged_wrapperIS0_EE4sizeEv.exit
  %exception = tail call ptr @__cxa_allocate_exception(i64 40) #24
  call void @_ZNSaIcEC1Ev(ptr noundef nonnull align 1 dereferenceable(1) %ref.tmp2) #24
  invoke void @_ZNSt7__cxx1112basic_stringIcSt11char_traitsIcESaIcEEC2IS3_EEPKcRKS3_(ptr noundef nonnull align 8 dereferenceable(32) %ref.tmp, ptr noundef nonnull @.str.22, ptr noundef nonnull align 1 dereferenceable(1) %ref.tmp2)
          to label %invoke.cont unwind label %cleanup.action

invoke.cont:                                      ; preds = %if.then
  store ptr getelementptr inbounds ({ [6 x ptr] }, ptr @_ZTV17default_exception, i64 0, i32 0, i64 2), ptr %exception, align 8
  %m_msg.i = getelementptr inbounds i8, ptr %exception, i64 8
  call void @_ZNSt7__cxx1112basic_stringIcSt11char_traitsIcESaIcEEC1EOS4_(ptr noundef nonnull align 8 dereferenceable(32) %m_msg.i, ptr noundef nonnull align 8 dereferenceable(32) %ref.tmp) #24
  invoke void @__cxa_throw(ptr nonnull %exception, ptr nonnull @_ZTI17default_exception, ptr nonnull @_ZN17default_exceptionD2Ev) #25
          to label %unreachable unwind label %ehcleanup

ehcleanup:                                        ; preds = %invoke.cont
  %2 = landingpad { ptr, i32 }
          cleanup
  call void @_ZNSt7__cxx1112basic_stringIcSt11char_traitsIcESaIcEED1Ev(ptr noundef nonnull align 8 dereferenceable(32) %ref.tmp) #24
  call void @_ZNSaIcED1Ev(ptr noundef nonnull align 1 dereferenceable(1) %ref.tmp2) #24
  br label %eh.resume

cleanup.action:                                   ; preds = %if.then
  %3 = landingpad { ptr, i32 }
          cleanup
  call void @_ZNSaIcED1Ev(ptr noundef nonnull align 1 dereferenceable(1) %ref.tmp2) #24
  call void @__cxa_free_exception(ptr %exception) #24
  br label %eh.resume

if.end:                                           ; preds = %_ZNK15ref_vector_coreI5model21ref_unmanaged_wrapperIS0_EE4sizeEv.exit
  %idxprom.i.i = zext i32 %index to i64
  %arrayidx.i.i4 = getelementptr inbounds ptr, ptr %0, i64 %idxprom.i.i
  %4 = load ptr, ptr %arrayidx.i.i4, align 8
  %tobool.not.i = icmp eq ptr %4, null
  br i1 %tobool.not.i, label %if.end.i, label %if.then.i

if.then.i:                                        ; preds = %if.end
  %m_ref_count.i.i = getelementptr inbounds i8, ptr %4, i64 16
  %5 = load i32, ptr %m_ref_count.i.i, align 8
  %inc.i.i = add i32 %5, 1
  store i32 %inc.i.i, ptr %m_ref_count.i.i, align 8
  br label %if.end.i

if.end.i:                                         ; preds = %if.then.i, %if.end
  %6 = load ptr, ptr %mdl, align 8
  %tobool.not.i.i = icmp eq ptr %6, null
  br i1 %tobool.not.i.i, label %_ZN3refI5modelEaSEPS0_.exit, label %if.then.i.i

if.then.i.i:                                      ; preds = %if.end.i
  %m_ref_count.i.i.i = getelementptr inbounds i8, ptr %6, i64 16
  %7 = load i32, ptr %m_ref_count.i.i.i, align 8
  %dec.i.i.i = add i32 %7, -1
  store i32 %dec.i.i.i, ptr %m_ref_count.i.i.i, align 8
  %cmp.i.i.i = icmp eq i32 %dec.i.i.i, 0
  br i1 %cmp.i.i.i, label %if.then.i.i.i, label %_ZN3refI5modelEaSEPS0_.exit

if.then.i.i.i:                                    ; preds = %if.then.i.i
  %vtable.i.i.i.i = load ptr, ptr %6, align 8
  %8 = load ptr, ptr %vtable.i.i.i.i, align 8
  tail call void %8(ptr noundef nonnull align 8 dereferenceable(96) %6) #24
  tail call void @_ZN6memory10deallocateEPv(ptr noundef nonnull %6)
  br label %_ZN3refI5modelEaSEPS0_.exit

_ZN3refI5modelEaSEPS0_.exit:                      ; preds = %if.end.i, %if.then.i.i, %if.then.i.i.i
  store ptr %4, ptr %mdl, align 8
  %vtable = load ptr, ptr %this, align 8
  %vfn = getelementptr inbounds i8, ptr %vtable, i64 168
  %9 = load ptr, ptr %vfn, align 8
  tail call void %9(ptr noundef nonnull align 8 dereferenceable(792) %this, ptr noundef nonnull align 8 dereferenceable(8) %mdl)
  ret void

eh.resume:                                        ; preds = %ehcleanup, %cleanup.action
  %.pn9 = phi { ptr, i32 } [ %2, %ehcleanup ], [ %3, %cleanup.action ]
  resume { ptr, i32 } %.pn9

unreachable:                                      ; preds = %invoke.cont
  unreachable
}